; Function Attrs: mustprogress nofree norecurse nosync nounwind willreturn memory(argmem: read) uwtable
define hidden noundef zeroext i1 @_ZNK3ue29CharReach14isCaselessCharEv(ptr noundef nonnull readonly align 8 captures(none) dereferenceable(32) %0) local_unnamed_addr #2 align 2 {
  %2 = load i64, ptr %0, align 8
  %3 = tail call range(i64 0, 65) i64 @llvm.ctpop.i64(i64 %2)
  %4 = getelementptr inbounds nuw i8, ptr %0, i64 8
  %5 = load i64, ptr %4, align 8
  %6 = tail call range(i64 0, 65) i64 @llvm.ctpop.i64(i64 %5)
  %7 = add nuw nsw i64 %6, %3
  %8 = getelementptr inbounds nuw i8, ptr %0, i64 16
  %9 = load i64, ptr %8, align 8
  %10 = tail call range(i64 0, 65) i64 @llvm.ctpop.i64(i64 %9)
  %11 = add nuw nsw i64 %7, %10
  %12 = getelementptr inbounds nuw i8, ptr %0, i64 24
  %13 = load i64, ptr %12, align 8
  %14 = tail call range(i64 0, 65) i64 @llvm.ctpop.i64(i64 %13)
  %15 = add nuw nsw i64 %11, %14
  %.not = icmp eq i64 %15, 2
  br i1 %.not, label %.preheader, label %46

.preheader:                                       ; preds = %1, %18
  %.0710.i.i = phi i64 [ %19, %18 ], [ 0, %1 ]
  %16 = getelementptr inbounds nuw [4 x i64], ptr %0, i64 0, i64 %.0710.i.i
  %17 = load i64, ptr %16, align 8
  %.not.i.i = icmp eq i64 %17, 0
  br i1 %.not.i.i, label %18, label %_ZNK3ue29CharReach10find_firstEv.exit

18:                                               ; preds = %.preheader
  %19 = add nuw nsw i64 %.0710.i.i, 1
  %exitcond.i.i = icmp eq i64 %19, 4
  br i1 %exitcond.i.i, label %_ZNK3ue29CharReach9find_nextEm.exit, label %.preheader, !llvm.loop !5

_ZNK3ue29CharReach10find_firstEv.exit:            ; preds = %.preheader
  %20 = shl nuw nsw i64 %.0710.i.i, 6
  %21 = tail call noundef range(i64 0, 65) i64 @llvm.cttz.i64(i64 %17, i1 true)
  %22 = or disjoint i64 %21, %20
  %.not.i.i4 = icmp samesign ult i64 %.0710.i.i, 4
  br i1 %.not.i.i4, label %23, label %_ZNK3ue29CharReach9find_nextEm.exit

23:                                               ; preds = %_ZNK3ue29CharReach10find_firstEv.exit
  %.not20.i.i = icmp eq i64 %21, 63
  br i1 %.not20.i.i, label %.preheader24, label %24

.preheader24:                                     ; preds = %24, %23
  br label %30

24:                                               ; preds = %23
  %25 = shl nsw i64 -2, %21
  %26 = and i64 %17, %25
  %.not21.i.i = icmp eq i64 %26, 0
  br i1 %.not21.i.i, label %.preheader24, label %27

27:                                               ; preds = %24
  %28 = tail call range(i64 0, 65) i64 @llvm.cttz.i64(i64 %26, i1 true)
  %29 = or disjoint i64 %28, %20
  br label %_ZNK3ue29CharReach9find_nextEm.exit

30:                                               ; preds = %.preheader24, %31
  %.0.in.i.i = phi i64 [ %.0.i.i, %31 ], [ %.0710.i.i, %.preheader24 ]
  %exitcond.not = icmp eq i64 %.0.in.i.i, 3
  br i1 %exitcond.not, label %_ZNK3ue29CharReach9find_nextEm.exit, label %31

31:                                               ; preds = %30
  %.0.i.i = add nuw nsw i64 %.0.in.i.i, 1
  %32 = getelementptr inbounds nuw [4 x i64], ptr %0, i64 0, i64 %.0.i.i
  %33 = load i64, ptr %32, align 8
  %.not22.i.i = icmp eq i64 %33, 0
  br i1 %.not22.i.i, label %30, label %34, !llvm.loop !7

34:                                               ; preds = %31
  %35 = shl nuw nsw i64 %.0.i.i, 6
  %36 = tail call noundef range(i64 0, 65) i64 @llvm.cttz.i64(i64 %33, i1 true)
  %37 = or disjoint i64 %36, %35
  br label %_ZNK3ue29CharReach9find_nextEm.exit

_ZNK3ue29CharReach9find_nextEm.exit:              ; preds = %18, %30, %_ZNK3ue29CharReach10find_firstEv.exit, %27, %34
  %spec.select.i.i7 = phi i64 [ %22, %_ZNK3ue29CharReach10find_firstEv.exit ], [ %22, %27 ], [ %22, %34 ], [ %22, %30 ], [ 256, %18 ]
  %.016.i.i = phi i64 [ 256, %_ZNK3ue29CharReach10find_firstEv.exit ], [ %29, %27 ], [ %37, %34 ], [ 256, %30 ], [ 256, %18 ]
  %38 = trunc i64 %spec.select.i.i7 to i32
  %sext = shl i32 %38, 24
  %39 = ashr exact i32 %sext, 24
  %40 = trunc i64 %.016.i.i to i8
  %41 = add i8 %40, -123
  %42 = icmp ult i8 %41, -26
  %43 = add i8 %40, -32
  %.0.i = select i1 %42, i8 %40, i8 %43
  %44 = sext i8 %.0.i to i32
  %45 = icmp eq i32 %39, %44
  br label %46

46:                                               ; preds = %1, %_ZNK3ue29CharReach9find_nextEm.exit
  %.0 = phi i1 [ %45, %_ZNK3ue29CharReach9find_nextEm.exit ], [ false, %1 ]
  ret i1 %.0
}